target datalayout = "e-m:e-p270:32:32-p271:32:32-p272:64:64-i64:64-i128:128-f80:128-n8:16:32:64-S128"
target triple = "x86_64-pc-linux-gnu"

%struct.ipmi_netfn_root = type { ptr, ptr, i32 }
%struct.ipmi_netfn_handler = type { ptr, ptr, i32, ptr, ptr, i32 }

@ipmi_cmd_tab = internal global [32 x %struct.ipmi_netfn_root] zeroinitializer, align 16
@selected_oem = internal global i32 0, align 4

; Function Attrs: nounwind null_pointer_is_valid sspstrong uwtable
define hidden ptr @ipmi_getnetfn(i32 noundef %0, ptr noundef %1) #4 {
  %3 = alloca ptr, align 8
  %4 = alloca i32, align 4
  %5 = alloca ptr, align 8
  %6 = alloca ptr, align 8
  %7 = alloca ptr, align 8
  %8 = alloca i32, align 4
  store i32 %0, ptr %4, align 4
  store ptr %1, ptr %5, align 8
  call void @llvm.lifetime.start.p0(i64 8, ptr %6) #10
  call void @llvm.lifetime.start.p0(i64 8, ptr %7) #10
  %9 = load i32, ptr %4, align 4
  %10 = lshr i32 %9, 1
  %11 = zext i32 %10 to i64
  %12 = getelementptr [32 x %struct.ipmi_netfn_root], ptr @ipmi_cmd_tab, i64 0, i64 %11
  store ptr %12, ptr %6, align 8
  %13 = load ptr, ptr %6, align 8
  %14 = getelementptr inbounds nuw %struct.ipmi_netfn_root, ptr %13, i32 0, i32 0
  %15 = load ptr, ptr %14, align 8
  store ptr %15, ptr %7, align 8
  br label %16

16:                                               ; preds = %49, %2
  %17 = load ptr, ptr %7, align 8
  %18 = icmp ne ptr %17, null
  br i1 %18, label %19, label %53

19:                                               ; preds = %16
  %20 = load ptr, ptr %7, align 8
  %21 = getelementptr inbounds nuw %struct.ipmi_netfn_handler, ptr %20, i32 0, i32 2
  %22 = load i32, ptr %21, align 8
  %23 = load i32, ptr @selected_oem, align 4
  %24 = icmp eq i32 %22, %23
  br i1 %24, label %30, label %25

25:                                               ; preds = %19
  %26 = load ptr, ptr %7, align 8
  %27 = getelementptr inbounds nuw %struct.ipmi_netfn_handler, ptr %26, i32 0, i32 2
  %28 = load i32, ptr %27, align 8
  %29 = icmp eq i32 %28, 0
  br i1 %29, label %30, label %48

30:                                               ; preds = %25, %19
  %31 = load ptr, ptr %6, align 8
  %32 = getelementptr inbounds nuw %struct.ipmi_netfn_root, ptr %31, i32 0, i32 2
  %33 = load i32, ptr %32, align 8
  %34 = icmp ne i32 %33, 0
  br i1 %34, label %35, label %46

35:                                               ; preds = %30
  %36 = load ptr, ptr %5, align 8
  %37 = load ptr, ptr %7, align 8
  %38 = getelementptr inbounds nuw %struct.ipmi_netfn_handler, ptr %37, i32 0, i32 3
  %39 = load ptr, ptr %38, align 8
  %40 = load ptr, ptr %6, align 8
  %41 = getelementptr inbounds nuw %struct.ipmi_netfn_root, ptr %40, i32 0, i32 2
  %42 = load i32, ptr %41, align 8
  %43 = zext i32 %42 to i64
  %44 = call i32 @memcmp(ptr noundef %36, ptr noundef %39, i64 noundef %43) #12
  %45 = icmp ne i32 %44, 0
  br i1 %45, label %48, label %46

46:                                               ; preds = %35, %30
  %47 = load ptr, ptr %7, align 8
  store ptr %47, ptr %3, align 8
  store i32 1, ptr %8, align 4
  br label %54

48:                                               ; preds = %35, %25
  br label %49

49:                                               ; preds = %48
  %50 = load ptr, ptr %7, align 8
  %51 = getelementptr inbounds nuw %struct.ipmi_netfn_handler, ptr %50, i32 0, i32 0
  %52 = load ptr, ptr %51, align 8
  store ptr %52, ptr %7, align 8
  br label %16, !llvm.loop !10

53:                                               ; preds = %16
  store ptr null, ptr %3, align 8
  store i32 1, ptr %8, align 4
  br label %54

54:                                               ; preds = %53, %46
  call void @llvm.lifetime.end.p0(i64 8, ptr %7) #10
  call void @llvm.lifetime.end.p0(i64 8, ptr %6) #10
  %55 = load ptr, ptr %3, align 8
  ret ptr %55
}