; Function Attrs: nofree nounwind null_pointer_is_valid sspstrong memory(read, inaccessiblemem: none) uwtable
define hidden ptr @ipmi_getnetfn(i32 noundef %0, ptr noundef readonly captures(none) %1) local_unnamed_addr #5 {
  %3 = lshr i32 %0, 1
  %4 = zext nneg i32 %3 to i64
  %5 = getelementptr [32 x %struct.ipmi_netfn_root], ptr @ipmi_cmd_tab, i64 0, i64 %4
  %6 = getelementptr inbounds nuw i8, ptr %5, i64 16
  %.016 = load ptr, ptr %5, align 8
  %.not17 = icmp eq ptr %.016, null
  br i1 %.not17, label %._crit_edge, label %.lr.ph

.lr.ph:                                           ; preds = %2
  %7 = load i32, ptr @selected_oem, align 4
  br label %8

8:                                                ; preds = %.lr.ph, %19
  %.018 = phi ptr [ %.016, %.lr.ph ], [ %.0, %19 ]
  %9 = getelementptr inbounds nuw i8, ptr %.018, i64 16
  %10 = load i32, ptr %9, align 8
  %11 = icmp eq i32 %10, %7
  %12 = icmp eq i32 %10, 0
  %or.cond = or i1 %12, %11
  br i1 %or.cond, label %13, label %19

13:                                               ; preds = %8
  %14 = load i32, ptr %6, align 8
  %.not14 = icmp eq i32 %14, 0
  br i1 %.not14, label %._crit_edge, label %15

15:                                               ; preds = %13
  %16 = getelementptr inbounds nuw i8, ptr %.018, i64 24
  %17 = load ptr, ptr %16, align 8
  %18 = zext i32 %14 to i64
  %bcmp = tail call i32 @bcmp(ptr %1, ptr %17, i64 %18)
  %.not15 = icmp eq i32 %bcmp, 0
  br i1 %.not15, label %._crit_edge, label %19

19:                                               ; preds = %8, %15
  %.0 = load ptr, ptr %.018, align 8
  %.not = icmp eq ptr %.0, null
  br i1 %.not, label %._crit_edge, label %8, !llvm.loop !9

._crit_edge:                                      ; preds = %15, %13, %19, %2
  %.0.lcssa = phi ptr [ null, %2 ], [ null, %19 ], [ %.018, %13 ], [ %.018, %15 ]
  ret ptr %.0.lcssa
}